; Function Attrs: mustprogress uwtable
define hidden noundef ptr @_ZN7datalog30finite_product_relation_plugin17to_table_relationERKNS_23finite_product_relationE(ptr nocapture noundef nonnull readonly align 8 dereferenceable(112) %this, ptr noundef nonnull align 8 dereferenceable(160) %r) local_unnamed_addr #3 align 2 personality ptr @__gxx_personality_v0 {
entry:
  %removed_col = alloca i32, align 4
  %project_fun = alloca %class.scoped_ptr, align 8
  tail call void @_ZNK7datalog23finite_product_relation15garbage_collectEb(ptr noundef nonnull align 8 dereferenceable(160) %r, i1 noundef zeroext true)
  %m_table.i = getelementptr inbounds i8, ptr %r, i64 104
  %0 = load ptr, ptr %m_table.i, align 8
  %m_signature.i = getelementptr inbounds i8, ptr %0, i64 16
  %1 = load ptr, ptr %m_signature.i, align 8
  %cmp.i = icmp eq ptr %1, null
  br i1 %cmp.i, label %_ZNK6vectorImLb0EjE4sizeEv.exit, label %if.end.i

if.end.i:                                         ; preds = %entry
  %arrayidx.i = getelementptr inbounds i8, ptr %1, i64 -4
  %2 = load i32, ptr %arrayidx.i, align 4
  %3 = add i32 %2, -1
  br label %_ZNK6vectorImLb0EjE4sizeEv.exit

_ZNK6vectorImLb0EjE4sizeEv.exit:                  ; preds = %entry, %if.end.i
  %retval.0.i = phi i32 [ %3, %if.end.i ], [ -1, %entry ]
  store i32 %retval.0.i, ptr %removed_col, align 4
  %m_manager.i = getelementptr inbounds i8, ptr %this, i64 24
  %4 = load ptr, ptr %m_manager.i, align 8
  %call6 = call noundef ptr @_ZN7datalog16relation_manager13mk_project_fnERKNS_10table_baseEjPKj(ptr noundef nonnull align 8 dereferenceable(200) %4, ptr noundef nonnull align 8 dereferenceable(36) %0, i32 noundef 1, ptr noundef nonnull %removed_col)
  store ptr %call6, ptr %project_fun, align 8
  %vtable = load ptr, ptr %call6, align 8
  %vfn = getelementptr inbounds i8, ptr %vtable, i64 16
  %5 = load ptr, ptr %vfn, align 8
  %call9 = invoke noundef ptr %5(ptr noundef nonnull align 8 dereferenceable(8) %call6, ptr noundef nonnull align 8 dereferenceable(36) %0)
          to label %invoke.cont8 unwind label %lpad

invoke.cont8:                                     ; preds = %_ZNK6vectorImLb0EjE4sizeEv.exit
  %6 = load ptr, ptr %m_manager.i, align 8
  %m_signature.i7 = getelementptr inbounds i8, ptr %r, i64 16
  %call15 = invoke noundef ptr @_ZN7datalog16relation_manager17mk_table_relationERKNS_18relation_signatureEPNS_10table_baseE(ptr noundef nonnull align 8 dereferenceable(200) %6, ptr noundef nonnull align 8 dereferenceable(8) %m_signature.i7, ptr noundef %call9)
          to label %if.end.i.i unwind label %lpad

if.end.i.i:                                       ; preds = %invoke.cont8
  %vtable.i.i = load ptr, ptr %call6, align 8
  %7 = load ptr, ptr %vtable.i.i, align 8
  call void %7(ptr noundef nonnull align 8 dereferenceable(8) %call6) #20
  invoke void @_ZN6memory10deallocateEPv(ptr noundef nonnull %call6)
          to label %_ZN10scoped_ptrIN7datalog17tr_infrastructureINS0_12table_traitsEE14transformer_fnEED2Ev.exit unwind label %terminate.lpad.i

terminate.lpad.i:                                 ; preds = %if.end.i.i
  %8 = landingpad { ptr, i32 }
          catch ptr null
  %9 = extractvalue { ptr, i32 } %8, 0
  call void @__clang_call_terminate(ptr %9) #22
  unreachable

_ZN10scoped_ptrIN7datalog17tr_infrastructureINS0_12table_traitsEE14transformer_fnEED2Ev.exit: ; preds = %if.end.i.i
  ret ptr %call15

lpad:                                             ; preds = %invoke.cont8, %_ZNK6vectorImLb0EjE4sizeEv.exit
  %10 = landingpad { ptr, i32 }
          cleanup
  call void @_ZN10scoped_ptrIN7datalog17tr_infrastructureINS0_12table_traitsEE14transformer_fnEED2Ev(ptr noundef nonnull align 8 dereferenceable(8) %project_fun) #20
  resume { ptr, i32 } %10
}